target datalayout = "e-m:e-p270:32:32-p271:32:32-p272:64:64-i64:64-i128:128-f80:128-n8:16:32:64-S128"
target triple = "x86_64-pc-linux-gnu"

%"struct.llvm::AAMDNodes" = type { ptr, ptr, ptr, ptr }

; Function Attrs: mustprogress nounwind uwtable
define dso_local noundef ptr @_ZN4llvm6MDNode18getMostGenericTBAAEPS0_S1_(ptr noundef %0, ptr noundef %1) #1 align 2 {
  %3 = alloca ptr, align 8
  %4 = alloca ptr, align 8
  %5 = alloca ptr, align 8
  store ptr %0, ptr %3, align 8
  store ptr %1, ptr %4, align 8
  %6 = load ptr, ptr %3, align 8
  %7 = load ptr, ptr %4, align 8
  %8 = call noundef zeroext i1 @_ZL15matchAccessTagsPKN4llvm6MDNodeES2_PS2_(ptr noundef %6, ptr noundef %7, ptr noundef %5)
  %9 = load ptr, ptr %5, align 8
  ret ptr %9
}

; Function Attrs: mustprogress nounwind uwtable
define linkonce_odr hidden void @_ZN4llvm9AAMDNodesC2Ev(ptr noundef nonnull align 8 dereferenceable(32) %0) unnamed_addr #1 comdat align 2 {
  %2 = alloca ptr, align 8
  store ptr %0, ptr %2, align 8
  %3 = load ptr, ptr %2, align 8
  %4 = getelementptr inbounds nuw %"struct.llvm::AAMDNodes", ptr %3, i32 0, i32 0
  store ptr null, ptr %4, align 8
  %5 = getelementptr inbounds nuw %"struct.llvm::AAMDNodes", ptr %3, i32 0, i32 1
  store ptr null, ptr %5, align 8
  %6 = getelementptr inbounds nuw %"struct.llvm::AAMDNodes", ptr %3, i32 0, i32 2
  store ptr null, ptr %6, align 8
  %7 = getelementptr inbounds nuw %"struct.llvm::AAMDNodes", ptr %3, i32 0, i32 3
  store ptr null, ptr %7, align 8
  ret void
}

; Function Attrs: mustprogress nounwind uwtable
define dso_local void @_ZNK4llvm9AAMDNodes5mergeERKS0_(ptr dead_on_unwind noalias writable sret(%"struct.llvm::AAMDNodes") align 8 %0, ptr noundef nonnull align 8 dereferenceable(32) %1, ptr noundef nonnull align 8 dereferenceable(32) %2) #1 align 2 {
  %4 = alloca ptr, align 8
  %5 = alloca ptr, align 8
  store ptr %1, ptr %4, align 8
  store ptr %2, ptr %5, align 8
  %6 = load ptr, ptr %4, align 8
  call void @_ZN4llvm9AAMDNodesC2Ev(ptr noundef nonnull align 8 dereferenceable(32) %0) #2
  %7 = getelementptr inbounds nuw %"struct.llvm::AAMDNodes", ptr %6, i32 0, i32 0
  %8 = load ptr, ptr %7, align 8
  %9 = load ptr, ptr %5, align 8
  %10 = getelementptr inbounds nuw %"struct.llvm::AAMDNodes", ptr %9, i32 0, i32 0
  %11 = load ptr, ptr %10, align 8
  %12 = call noundef ptr @_ZN4llvm6MDNode18getMostGenericTBAAEPS0_S1_(ptr noundef %8, ptr noundef %11)
  %13 = getelementptr inbounds nuw %"struct.llvm::AAMDNodes", ptr %0, i32 0, i32 0
  store ptr %12, ptr %13, align 8
  %14 = getelementptr inbounds nuw %"struct.llvm::AAMDNodes", ptr %0, i32 0, i32 1
  store ptr null, ptr %14, align 8
  %15 = getelementptr inbounds nuw %"struct.llvm::AAMDNodes", ptr %6, i32 0, i32 2
  %16 = load ptr, ptr %15, align 8
  %17 = load ptr, ptr %5, align 8
  %18 = getelementptr inbounds nuw %"struct.llvm::AAMDNodes", ptr %17, i32 0, i32 2
  %19 = load ptr, ptr %18, align 8
  %20 = call noundef ptr @_ZN4llvm6MDNode24getMostGenericAliasScopeEPS0_S1_(ptr noundef %16, ptr noundef %19)
  %21 = getelementptr inbounds nuw %"struct.llvm::AAMDNodes", ptr %0, i32 0, i32 2
  store ptr %20, ptr %21, align 8
  %22 = getelementptr inbounds nuw %"struct.llvm::AAMDNodes", ptr %6, i32 0, i32 3
  %23 = load ptr, ptr %22, align 8
  %24 = load ptr, ptr %5, align 8
  %25 = getelementptr inbounds nuw %"struct.llvm::AAMDNodes", ptr %24, i32 0, i32 3
  %26 = load ptr, ptr %25, align 8
  %27 = call noundef ptr @_ZN4llvm6MDNode9intersectEPS0_S1_(ptr noundef %23, ptr noundef %26)
  %28 = getelementptr inbounds nuw %"struct.llvm::AAMDNodes", ptr %0, i32 0, i32 3
  store ptr %27, ptr %28, align 8
  ret void
}