; Function Attrs: mustprogress nounwind uwtable
define dso_local void @_ZNK4llvm9AAMDNodes5mergeERKS0_(ptr dead_on_unwind noalias nocapture writable writeonly sret(%"struct.llvm::AAMDNodes") align 8 %0, ptr nocapture noundef nonnull readonly align 8 dereferenceable(32) %1, ptr nocapture noundef nonnull readonly align 8 dereferenceable(32) %2) local_unnamed_addr #0 align 2 {
  tail call void @llvm.memset.p0.i64(ptr noundef nonnull align 8 dereferenceable(32) %0, i8 0, i64 32, i1 false)
  %4 = load ptr, ptr %1, align 8
  %5 = load ptr, ptr %2, align 8
  %6 = tail call fastcc noundef zeroext i1 @_ZL15matchAccessTagsPKN4llvm6MDNodeES2_PS2_(ptr noundef %4, ptr noundef %5, ptr noundef nonnull %0)
  %7 = getelementptr inbounds nuw i8, ptr %0, i64 8
  store ptr null, ptr %7, align 8
  %8 = getelementptr inbounds nuw i8, ptr %1, i64 16
  %9 = load ptr, ptr %8, align 8
  %10 = getelementptr inbounds nuw i8, ptr %2, i64 16
  %11 = load ptr, ptr %10, align 8
  %12 = tail call noundef ptr @_ZN4llvm6MDNode24getMostGenericAliasScopeEPS0_S1_(ptr noundef %9, ptr noundef %11) #20
  %13 = getelementptr inbounds nuw i8, ptr %0, i64 16
  store ptr %12, ptr %13, align 8
  %14 = getelementptr inbounds nuw i8, ptr %1, i64 24
  %15 = load ptr, ptr %14, align 8
  %16 = getelementptr inbounds nuw i8, ptr %2, i64 24
  %17 = load ptr, ptr %16, align 8
  %18 = tail call noundef ptr @_ZN4llvm6MDNode9intersectEPS0_S1_(ptr noundef %15, ptr noundef %17) #20
  %19 = getelementptr inbounds nuw i8, ptr %0, i64 24
  store ptr %18, ptr %19, align 8
  ret void
}